; Function Attrs: mustprogress nounwind uwtable
define hidden void @_ZN10ElfDecoderD0Ev(ptr noundef nonnull align 8 dereferenceable(24) %0) unnamed_addr #0 align 2 {
  store ptr getelementptr inbounds inrange(-16, 64) (i8, ptr @_ZTV10ElfDecoder, i64 16), ptr %0, align 8
  %2 = getelementptr inbounds i8, ptr %0, i64 16
  %3 = load ptr, ptr %2, align 8
  %.not.i = icmp eq ptr %3, null
  br i1 %.not.i, label %_ZN10ElfDecoderD2Ev.exit, label %4

4:                                                ; preds = %1
  %5 = load ptr, ptr %3, align 8
  %6 = getelementptr inbounds i8, ptr %5, i64 8
  %7 = load ptr, ptr %6, align 8
  tail call void %7(ptr noundef nonnull align 8 dereferenceable(144) %3) #4
  store ptr null, ptr %2, align 8
  br label %_ZN10ElfDecoderD2Ev.exit

_ZN10ElfDecoderD2Ev.exit:                         ; preds = %1, %4
  tail call void @_Z8FreeHeapPv(ptr noundef nonnull %0) #4
  ret void
}